target datalayout = "e-m:e-p270:32:32-p271:32:32-p272:64:64-i64:64-i128:128-f80:128-n8:16:32:64-S128"
target triple = "x86_64-pc-linux-gnu"

%struct.parResultsMaster = type { i32, i32, [10 x %struct.contractType] }
%struct.contractType = type { i32, i32, i32, i32, i32 }

@.str = private unnamed_addr constant [3 x i8] c"%d\00", align 1
@.str.7 = private unnamed_addr constant [2 x i8] c"N\00", align 1
@.str.8 = private unnamed_addr constant [2 x i8] c"S\00", align 1
@.str.9 = private unnamed_addr constant [2 x i8] c"H\00", align 1
@.str.10 = private unnamed_addr constant [2 x i8] c"D\00", align 1
@.str.11 = private unnamed_addr constant [2 x i8] c"C\00", align 1
@.str.17 = private unnamed_addr constant [9 x i8] c"Par %d: \00", align 1
@.str.18 = private unnamed_addr constant [2 x i8] c" \00", align 1
@.str.19 = private unnamed_addr constant [3 x i8] c"N \00", align 1
@.str.20 = private unnamed_addr constant [3 x i8] c"E \00", align 1
@.str.21 = private unnamed_addr constant [3 x i8] c"S \00", align 1
@.str.22 = private unnamed_addr constant [3 x i8] c"W \00", align 1
@.str.23 = private unnamed_addr constant [4 x i8] c"NS \00", align 1
@.str.24 = private unnamed_addr constant [4 x i8] c"EW \00", align 1
@.str.25 = private unnamed_addr constant [3 x i8] c"x-\00", align 1
@.str.26 = private unnamed_addr constant [2 x i8] c"+\00", align 1

; Function Attrs: mustprogress nounwind uwtable
define i32 @ConvertToDealerTextFormat(ptr noundef %0, ptr noundef %1) #4 {
  %3 = alloca i32, align 4
  %4 = alloca ptr, align 8
  %5 = alloca ptr, align 8
  %6 = alloca i32, align 4
  %7 = alloca i32, align 4
  %8 = alloca [20 x i8], align 16
  store ptr %0, ptr %4, align 8
  store ptr %1, ptr %5, align 8
  %9 = load ptr, ptr %5, align 8
  %10 = load ptr, ptr %4, align 8
  %11 = getelementptr inbounds nuw %struct.parResultsMaster, ptr %10, i32 0, i32 0
  %12 = load i32, ptr %11, align 4
  %13 = call i32 (ptr, ptr, ...) @sprintf(ptr noundef %9, ptr noundef @.str.17, i32 noundef %12) #7
  store i32 0, ptr %6, align 4
  br label %14

14:                                               ; preds = %172, %2
  %15 = load i32, ptr %6, align 4
  %16 = load ptr, ptr %4, align 8
  %17 = getelementptr inbounds nuw %struct.parResultsMaster, ptr %16, i32 0, i32 1
  %18 = load i32, ptr %17, align 4
  %19 = icmp slt i32 %15, %18
  br i1 %19, label %20, label %175

20:                                               ; preds = %14
  %21 = load i32, ptr %6, align 4
  %22 = icmp ne i32 %21, 0
  br i1 %22, label %23, label %26

23:                                               ; preds = %20
  %24 = load ptr, ptr %5, align 8
  %25 = call ptr @strcat(ptr noundef %24, ptr noundef @.str.18) #7
  br label %26

26:                                               ; preds = %23, %20
  %27 = load ptr, ptr %4, align 8
  %28 = getelementptr inbounds nuw %struct.parResultsMaster, ptr %27, i32 0, i32 2
  %29 = load i32, ptr %6, align 4
  %30 = sext i32 %29 to i64
  %31 = getelementptr inbounds [10 x %struct.contractType], ptr %28, i64 0, i64 %30
  %32 = getelementptr inbounds nuw %struct.contractType, ptr %31, i32 0, i32 4
  %33 = load i32, ptr %32, align 4
  switch i32 %33, label %52 [
    i32 0, label %34
    i32 1, label %37
    i32 2, label %40
    i32 3, label %43
    i32 4, label %46
    i32 5, label %49
  ]

34:                                               ; preds = %26
  %35 = load ptr, ptr %5, align 8
  %36 = call ptr @strcat(ptr noundef %35, ptr noundef @.str.19) #7
  br label %53

37:                                               ; preds = %26
  %38 = load ptr, ptr %5, align 8
  %39 = call ptr @strcat(ptr noundef %38, ptr noundef @.str.20) #7
  br label %53

40:                                               ; preds = %26
  %41 = load ptr, ptr %5, align 8
  %42 = call ptr @strcat(ptr noundef %41, ptr noundef @.str.21) #7
  br label %53

43:                                               ; preds = %26
  %44 = load ptr, ptr %5, align 8
  %45 = call ptr @strcat(ptr noundef %44, ptr noundef @.str.22) #7
  br label %53

46:                                               ; preds = %26
  %47 = load ptr, ptr %5, align 8
  %48 = call ptr @strcat(ptr noundef %47, ptr noundef @.str.23) #7
  br label %53

49:                                               ; preds = %26
  %50 = load ptr, ptr %5, align 8
  %51 = call ptr @strcat(ptr noundef %50, ptr noundef @.str.24) #7
  br label %53

52:                                               ; preds = %26
  store i32 -1, ptr %3, align 4
  br label %176

53:                                               ; preds = %49, %46, %43, %40, %37, %34
  store i32 0, ptr %7, align 4
  br label %54

54:                                               ; preds = %61, %53
  %55 = load i32, ptr %7, align 4
  %56 = icmp slt i32 %55, 10
  br i1 %56, label %57, label %64

57:                                               ; preds = %54
  %58 = load i32, ptr %7, align 4
  %59 = sext i32 %58 to i64
  %60 = getelementptr inbounds [20 x i8], ptr %8, i64 0, i64 %59
  store i8 0, ptr %60, align 1
  br label %61

61:                                               ; preds = %57
  %62 = load i32, ptr %7, align 4
  %63 = add nsw i32 %62, 1
  store i32 %63, ptr %7, align 4
  br label %54, !llvm.loop !35

64:                                               ; preds = %54
  %65 = getelementptr inbounds [20 x i8], ptr %8, i64 0, i64 0
  %66 = load ptr, ptr %4, align 8
  %67 = getelementptr inbounds nuw %struct.parResultsMaster, ptr %66, i32 0, i32 2
  %68 = load i32, ptr %6, align 4
  %69 = sext i32 %68 to i64
  %70 = getelementptr inbounds [10 x %struct.contractType], ptr %67, i64 0, i64 %69
  %71 = getelementptr inbounds nuw %struct.contractType, ptr %70, i32 0, i32 2
  %72 = load i32, ptr %71, align 4
  %73 = call i32 (ptr, ptr, ...) @sprintf(ptr noundef %65, ptr noundef @.str, i32 noundef %72) #7
  %74 = load ptr, ptr %5, align 8
  %75 = getelementptr inbounds [20 x i8], ptr %8, i64 0, i64 0
  %76 = call ptr @strcat(ptr noundef %74, ptr noundef %75) #7
  %77 = load ptr, ptr %4, align 8
  %78 = getelementptr inbounds nuw %struct.parResultsMaster, ptr %77, i32 0, i32 2
  %79 = load i32, ptr %6, align 4
  %80 = sext i32 %79 to i64
  %81 = getelementptr inbounds [10 x %struct.contractType], ptr %78, i64 0, i64 %80
  %82 = getelementptr inbounds nuw %struct.contractType, ptr %81, i32 0, i32 3
  %83 = load i32, ptr %82, align 4
  switch i32 %83, label %99 [
    i32 0, label %84
    i32 1, label %87
    i32 2, label %90
    i32 3, label %93
    i32 4, label %96
  ]

84:                                               ; preds = %64
  %85 = load ptr, ptr %5, align 8
  %86 = call ptr @strcat(ptr noundef %85, ptr noundef @.str.7) #7
  br label %100

87:                                               ; preds = %64
  %88 = load ptr, ptr %5, align 8
  %89 = call ptr @strcat(ptr noundef %88, ptr noundef @.str.8) #7
  br label %100

90:                                               ; preds = %64
  %91 = load ptr, ptr %5, align 8
  %92 = call ptr @strcat(ptr noundef %91, ptr noundef @.str.9) #7
  br label %100

93:                                               ; preds = %64
  %94 = load ptr, ptr %5, align 8
  %95 = call ptr @strcat(ptr noundef %94, ptr noundef @.str.10) #7
  br label %100

96:                                               ; preds = %64
  %97 = load ptr, ptr %5, align 8
  %98 = call ptr @strcat(ptr noundef %97, ptr noundef @.str.11) #7
  br label %100

99:                                               ; preds = %64
  store i32 -1, ptr %3, align 4
  br label %176

100:                                              ; preds = %96, %93, %90, %87, %84
  %101 = load ptr, ptr %4, align 8
  %102 = getelementptr inbounds nuw %struct.parResultsMaster, ptr %101, i32 0, i32 2
  %103 = load i32, ptr %6, align 4
  %104 = sext i32 %103 to i64
  %105 = getelementptr inbounds [10 x %struct.contractType], ptr %102, i64 0, i64 %104
  %106 = getelementptr inbounds nuw %struct.contractType, ptr %105, i32 0, i32 0
  %107 = load i32, ptr %106, align 4
  %108 = icmp sgt i32 %107, 0
  br i1 %108, label %109, label %135

109:                                              ; preds = %100
  %110 = load ptr, ptr %5, align 8
  %111 = call ptr @strcat(ptr noundef %110, ptr noundef @.str.25) #7
  store i32 0, ptr %7, align 4
  br label %112

112:                                              ; preds = %119, %109
  %113 = load i32, ptr %7, align 4
  %114 = icmp slt i32 %113, 10
  br i1 %114, label %115, label %122

115:                                              ; preds = %112
  %116 = load i32, ptr %7, align 4
  %117 = sext i32 %116 to i64
  %118 = getelementptr inbounds [20 x i8], ptr %8, i64 0, i64 %117
  store i8 0, ptr %118, align 1
  br label %119

119:                                              ; preds = %115
  %120 = load i32, ptr %7, align 4
  %121 = add nsw i32 %120, 1
  store i32 %121, ptr %7, align 4
  br label %112, !llvm.loop !36

122:                                              ; preds = %112
  %123 = getelementptr inbounds [20 x i8], ptr %8, i64 0, i64 0
  %124 = load ptr, ptr %4, align 8
  %125 = getelementptr inbounds nuw %struct.parResultsMaster, ptr %124, i32 0, i32 2
  %126 = load i32, ptr %6, align 4
  %127 = sext i32 %126 to i64
  %128 = getelementptr inbounds [10 x %struct.contractType], ptr %125, i64 0, i64 %127
  %129 = getelementptr inbounds nuw %struct.contractType, ptr %128, i32 0, i32 0
  %130 = load i32, ptr %129, align 4
  %131 = call i32 (ptr, ptr, ...) @sprintf(ptr noundef %123, ptr noundef @.str, i32 noundef %130) #7
  %132 = load ptr, ptr %5, align 8
  %133 = getelementptr inbounds [20 x i8], ptr %8, i64 0, i64 0
  %134 = call ptr @strcat(ptr noundef %132, ptr noundef %133) #7
  br label %171

135:                                              ; preds = %100
  %136 = load ptr, ptr %4, align 8
  %137 = getelementptr inbounds nuw %struct.parResultsMaster, ptr %136, i32 0, i32 2
  %138 = load i32, ptr %6, align 4
  %139 = sext i32 %138 to i64
  %140 = getelementptr inbounds [10 x %struct.contractType], ptr %137, i64 0, i64 %139
  %141 = getelementptr inbounds nuw %struct.contractType, ptr %140, i32 0, i32 1
  %142 = load i32, ptr %141, align 4
  %143 = icmp sgt i32 %142, 0
  br i1 %143, label %144, label %170

144:                                              ; preds = %135
  %145 = load ptr, ptr %5, align 8
  %146 = call ptr @strcat(ptr noundef %145, ptr noundef @.str.26) #7
  store i32 0, ptr %7, align 4
  br label %147

147:                                              ; preds = %154, %144
  %148 = load i32, ptr %7, align 4
  %149 = icmp slt i32 %148, 10
  br i1 %149, label %150, label %157

150:                                              ; preds = %147
  %151 = load i32, ptr %7, align 4
  %152 = sext i32 %151 to i64
  %153 = getelementptr inbounds [20 x i8], ptr %8, i64 0, i64 %152
  store i8 0, ptr %153, align 1
  br label %154

154:                                              ; preds = %150
  %155 = load i32, ptr %7, align 4
  %156 = add nsw i32 %155, 1
  store i32 %156, ptr %7, align 4
  br label %147, !llvm.loop !37

157:                                              ; preds = %147
  %158 = getelementptr inbounds [20 x i8], ptr %8, i64 0, i64 0
  %159 = load ptr, ptr %4, align 8
  %160 = getelementptr inbounds nuw %struct.parResultsMaster, ptr %159, i32 0, i32 2
  %161 = load i32, ptr %6, align 4
  %162 = sext i32 %161 to i64
  %163 = getelementptr inbounds [10 x %struct.contractType], ptr %160, i64 0, i64 %162
  %164 = getelementptr inbounds nuw %struct.contractType, ptr %163, i32 0, i32 1
  %165 = load i32, ptr %164, align 4
  %166 = call i32 (ptr, ptr, ...) @sprintf(ptr noundef %158, ptr noundef @.str, i32 noundef %165) #7
  %167 = load ptr, ptr %5, align 8
  %168 = getelementptr inbounds [20 x i8], ptr %8, i64 0, i64 0
  %169 = call ptr @strcat(ptr noundef %167, ptr noundef %168) #7
  br label %170

170:                                              ; preds = %157, %135
  br label %171

171:                                              ; preds = %170, %122
  br label %172

172:                                              ; preds = %171
  %173 = load i32, ptr %6, align 4
  %174 = add nsw i32 %173, 1
  store i32 %174, ptr %6, align 4
  br label %14, !llvm.loop !38

175:                                              ; preds = %14
  store i32 1, ptr %3, align 4
  br label %176

176:                                              ; preds = %175, %99, %52
  %177 = load i32, ptr %3, align 4
  ret i32 %177
}