; Function Attrs: mustprogress nofree nounwind uwtable
define range(i32 -1, 2) i32 @ConvertToDealerTextFormat(ptr noundef readonly captures(none) %0, ptr noundef %1) local_unnamed_addr #3 {
  %3 = alloca [20 x i8], align 16
  %4 = load i32, ptr %0, align 4
  %5 = tail call i32 (ptr, ptr, ...) @sprintf(ptr noundef nonnull dereferenceable(1) %1, ptr noundef nonnull dereferenceable(1) @.str.17, i32 noundef %4) #13
  %6 = getelementptr inbounds nuw i8, ptr %0, i64 4
  %7 = load i32, ptr %6, align 4
  %8 = icmp sgt i32 %7, 0
  br i1 %8, label %.lr.ph, label %._crit_edge

.lr.ph:                                           ; preds = %2
  %9 = getelementptr inbounds nuw i8, ptr %0, i64 8
  br label %10

10:                                               ; preds = %.lr.ph, %41
  %indvars.iv = phi i64 [ 0, %.lr.ph ], [ %indvars.iv.next, %41 ]
  %.not = icmp eq i64 %indvars.iv, 0
  br i1 %.not, label %12, label %11

11:                                               ; preds = %10
  %strlen = tail call i64 @strlen(ptr noundef nonnull dereferenceable(1) %1)
  %endptr = getelementptr inbounds i8, ptr %1, i64 %strlen
  store i16 32, ptr %endptr, align 1
  br label %12

12:                                               ; preds = %11, %10
  %13 = getelementptr inbounds nuw [10 x %struct.contractType], ptr %9, i64 0, i64 %indvars.iv
  %14 = getelementptr inbounds nuw i8, ptr %13, i64 16
  %15 = load i32, ptr %14, align 4
  switch i32 %15, label %._crit_edge [
    i32 0, label %16
    i32 1, label %17
    i32 2, label %18
    i32 3, label %19
    i32 4, label %20
    i32 5, label %21
  ]

16:                                               ; preds = %12
  %strlen58 = tail call i64 @strlen(ptr noundef nonnull dereferenceable(1) %1)
  %endptr59 = getelementptr inbounds i8, ptr %1, i64 %strlen58
  tail call void @llvm.memcpy.p0.p0.i64(ptr noundef nonnull align 1 dereferenceable(3) %endptr59, ptr noundef nonnull align 1 dereferenceable(3) @.str.19, i64 3, i1 false)
  br label %22

17:                                               ; preds = %12
  %strlen56 = tail call i64 @strlen(ptr noundef nonnull dereferenceable(1) %1)
  %endptr57 = getelementptr inbounds i8, ptr %1, i64 %strlen56
  tail call void @llvm.memcpy.p0.p0.i64(ptr noundef nonnull align 1 dereferenceable(3) %endptr57, ptr noundef nonnull align 1 dereferenceable(3) @.str.20, i64 3, i1 false)
  br label %22

18:                                               ; preds = %12
  %strlen54 = tail call i64 @strlen(ptr noundef nonnull dereferenceable(1) %1)
  %endptr55 = getelementptr inbounds i8, ptr %1, i64 %strlen54
  tail call void @llvm.memcpy.p0.p0.i64(ptr noundef nonnull align 1 dereferenceable(3) %endptr55, ptr noundef nonnull align 1 dereferenceable(3) @.str.21, i64 3, i1 false)
  br label %22

19:                                               ; preds = %12
  %strlen52 = tail call i64 @strlen(ptr noundef nonnull dereferenceable(1) %1)
  %endptr53 = getelementptr inbounds i8, ptr %1, i64 %strlen52
  tail call void @llvm.memcpy.p0.p0.i64(ptr noundef nonnull align 1 dereferenceable(3) %endptr53, ptr noundef nonnull align 1 dereferenceable(3) @.str.22, i64 3, i1 false)
  br label %22

20:                                               ; preds = %12
  %strlen50 = tail call i64 @strlen(ptr noundef nonnull dereferenceable(1) %1)
  %endptr51 = getelementptr inbounds i8, ptr %1, i64 %strlen50
  store i32 2118478, ptr %endptr51, align 1
  br label %22

21:                                               ; preds = %12
  %strlen48 = tail call i64 @strlen(ptr noundef nonnull dereferenceable(1) %1)
  %endptr49 = getelementptr inbounds i8, ptr %1, i64 %strlen48
  store i32 2119493, ptr %endptr49, align 1
  br label %22

22:                                               ; preds = %21, %20, %19, %18, %17, %16
  call void @llvm.memset.p0.i64(ptr noundef nonnull align 16 dereferenceable(10) %3, i8 0, i64 10, i1 false)
  %23 = getelementptr inbounds nuw i8, ptr %13, i64 8
  %24 = load i32, ptr %23, align 4
  %25 = call i32 (ptr, ptr, ...) @sprintf(ptr noundef nonnull dereferenceable(1) %3, ptr noundef nonnull dereferenceable(1) @.str, i32 noundef %24) #13
  %26 = call ptr @strcat(ptr noundef nonnull dereferenceable(1) %1, ptr noundef nonnull dereferenceable(1) %3) #13
  %27 = getelementptr inbounds nuw i8, ptr %13, i64 12
  %28 = load i32, ptr %27, align 4
  %29 = icmp ult i32 %28, 5
  br i1 %29, label %switch.lookup, label %._crit_edge

switch.lookup:                                    ; preds = %22
  %30 = zext nneg i32 %28 to i64
  %switch.gep = getelementptr inbounds nuw [5 x i16], ptr @switch.table.ConvertToDealerTextFormat, i64 0, i64 %30
  %switch.load = load i16, ptr %switch.gep, align 2
  %strlen60 = tail call i64 @strlen(ptr noundef nonnull dereferenceable(1) %1)
  %endptr61 = getelementptr inbounds i8, ptr %1, i64 %strlen60
  store i16 %switch.load, ptr %endptr61, align 1
  %31 = load i32, ptr %13, align 4
  %32 = icmp sgt i32 %31, 0
  br i1 %32, label %33, label %34

33:                                               ; preds = %switch.lookup
  %strlen72 = tail call i64 @strlen(ptr noundef nonnull dereferenceable(1) %1)
  %endptr73 = getelementptr inbounds i8, ptr %1, i64 %strlen72
  tail call void @llvm.memcpy.p0.p0.i64(ptr noundef nonnull align 1 dereferenceable(3) %endptr73, ptr noundef nonnull align 1 dereferenceable(3) @.str.25, i64 3, i1 false)
  br label %.sink.split

34:                                               ; preds = %switch.lookup
  %35 = getelementptr inbounds nuw i8, ptr %13, i64 4
  %36 = load i32, ptr %35, align 4
  %37 = icmp sgt i32 %36, 0
  br i1 %37, label %38, label %41

38:                                               ; preds = %34
  %strlen70 = tail call i64 @strlen(ptr noundef nonnull dereferenceable(1) %1)
  %endptr71 = getelementptr inbounds i8, ptr %1, i64 %strlen70
  store i16 43, ptr %endptr71, align 1
  br label %.sink.split

.sink.split:                                      ; preds = %38, %33
  %.sink86.in = phi ptr [ %13, %33 ], [ %35, %38 ]
  call void @llvm.memset.p0.i64(ptr noundef nonnull align 16 dereferenceable(10) %3, i8 0, i64 10, i1 false)
  %.sink86 = load i32, ptr %.sink86.in, align 4
  %39 = call i32 (ptr, ptr, ...) @sprintf(ptr noundef nonnull dereferenceable(1) %3, ptr noundef nonnull dereferenceable(1) @.str, i32 noundef %.sink86) #13
  %40 = call ptr @strcat(ptr noundef nonnull dereferenceable(1) %1, ptr noundef nonnull dereferenceable(1) %3) #13
  br label %41

41:                                               ; preds = %.sink.split, %34
  %indvars.iv.next = add nuw nsw i64 %indvars.iv, 1
  %42 = load i32, ptr %6, align 4
  %43 = sext i32 %42 to i64
  %44 = icmp slt i64 %indvars.iv.next, %43
  br i1 %44, label %10, label %._crit_edge, !llvm.loop !33

._crit_edge:                                      ; preds = %12, %41, %22, %2
  %.047 = phi i32 [ 1, %2 ], [ 1, %41 ], [ -1, %22 ], [ -1, %12 ]
  ret i32 %.047
}